; Function Attrs: nounwind sspstrong uwtable
define dso_local noundef i64 @rb_file_s_expand_path(i32 noundef %0, ptr noundef nonnull readonly captures(none) %1) local_unnamed_addr #0 {
  %3 = add i32 %0, -3
  %or.cond = icmp ult i32 %3, -2
  br i1 %or.cond, label %4, label %rb_check_arity.exit

4:                                                ; preds = %2
  tail call void @rb_error_arity(i32 noundef %0, i32 noundef 1, i32 noundef 2) #24
  unreachable

rb_check_arity.exit:                              ; preds = %2
  %5 = load i64, ptr %1, align 8, !tbaa !12
  %6 = icmp samesign ugt i32 %0, 1
  br i1 %6, label %7, label %10

7:                                                ; preds = %rb_check_arity.exit
  %8 = getelementptr i8, ptr %1, i64 8
  %9 = load i64, ptr %8, align 8, !tbaa !12
  br label %10

10:                                               ; preds = %rb_check_arity.exit, %7
  %11 = phi i64 [ %9, %7 ], [ 4, %rb_check_arity.exit ]
  %12 = tail call i64 @rb_file_expand_path(i64 noundef %5, i64 noundef %11)
  ret i64 %12
}